target datalayout = "e-m:e-p270:32:32-p271:32:32-p272:64:64-i64:64-i128:128-f80:128-n8:16:32:64-S128"
target triple = "x86_64-pc-linux-gnu"

%"class.std::__cxx11::basic_string" = type { %"struct.std::__cxx11::basic_string<char>::_Alloc_hider", i64, %union.anon }
%"struct.std::__cxx11::basic_string<char>::_Alloc_hider" = type { ptr }
%union.anon = type { i64, [8 x i8] }
%"class.std::allocator.31" = type { i8 }
%"struct.cv::utils::logging::internal::GlobalLoggingInitStruct" = type { %"class.cv::utils::logging::LogTagManager" }
%"class.cv::utils::logging::LogTagManager" = type { %"class.std::recursive_mutex", %"class.std::unique_ptr", %"struct.cv::utils::logging::LogTagManager::NameTable", %"class.std::shared_ptr" }
%"class.std::recursive_mutex" = type { %"class.std::__recursive_mutex_base" }
%"class.std::__recursive_mutex_base" = type { %union.pthread_mutex_t }
%union.pthread_mutex_t = type { %struct.__pthread_mutex_s }
%struct.__pthread_mutex_s = type { i32, i32, i32, i32, i32, i16, i16, %struct.__pthread_internal_list }
%struct.__pthread_internal_list = type { ptr, ptr }
%"class.std::unique_ptr" = type { %"struct.std::__uniq_ptr_data" }
%"struct.std::__uniq_ptr_data" = type { %"class.std::__uniq_ptr_impl" }
%"class.std::__uniq_ptr_impl" = type { %"class.std::tuple" }
%"class.std::tuple" = type { %"struct.std::_Tuple_impl" }
%"struct.std::_Tuple_impl" = type { %"struct.std::_Head_base.1" }
%"struct.std::_Head_base.1" = type { ptr }
%"struct.cv::utils::logging::LogTagManager::NameTable" = type { %"class.std::vector", %"class.std::vector.2", %"class.std::unordered_map", %"class.std::unordered_map", %"class.std::unordered_multimap", %"class.std::unordered_multimap" }
%"class.std::vector" = type { %"struct.std::_Vector_base" }
%"struct.std::_Vector_base" = type { %"struct.std::_Vector_base<cv::utils::logging::LogTagManager::FullNameInfo, std::allocator<cv::utils::logging::LogTagManager::FullNameInfo>>::_Vector_impl" }
%"struct.std::_Vector_base<cv::utils::logging::LogTagManager::FullNameInfo, std::allocator<cv::utils::logging::LogTagManager::FullNameInfo>>::_Vector_impl" = type { %"struct.std::_Vector_base<cv::utils::logging::LogTagManager::FullNameInfo, std::allocator<cv::utils::logging::LogTagManager::FullNameInfo>>::_Vector_impl_data" }
%"struct.std::_Vector_base<cv::utils::logging::LogTagManager::FullNameInfo, std::allocator<cv::utils::logging::LogTagManager::FullNameInfo>>::_Vector_impl_data" = type { ptr, ptr, ptr }
%"class.std::vector.2" = type { %"struct.std::_Vector_base.3" }
%"struct.std::_Vector_base.3" = type { %"struct.std::_Vector_base<cv::utils::logging::LogTagManager::NamePartInfo, std::allocator<cv::utils::logging::LogTagManager::NamePartInfo>>::_Vector_impl" }
%"struct.std::_Vector_base<cv::utils::logging::LogTagManager::NamePartInfo, std::allocator<cv::utils::logging::LogTagManager::NamePartInfo>>::_Vector_impl" = type { %"struct.std::_Vector_base<cv::utils::logging::LogTagManager::NamePartInfo, std::allocator<cv::utils::logging::LogTagManager::NamePartInfo>>::_Vector_impl_data" }
%"struct.std::_Vector_base<cv::utils::logging::LogTagManager::NamePartInfo, std::allocator<cv::utils::logging::LogTagManager::NamePartInfo>>::_Vector_impl_data" = type { ptr, ptr, ptr }
%"class.std::unordered_map" = type { %"class.std::_Hashtable" }
%"class.std::_Hashtable" = type { ptr, i64, %"struct.std::__detail::_Hash_node_base", i64, %"struct.std::__detail::_Prime_rehash_policy", ptr }
%"struct.std::__detail::_Hash_node_base" = type { ptr }
%"struct.std::__detail::_Prime_rehash_policy" = type { float, i64 }
%"class.std::unordered_multimap" = type { %"class.std::_Hashtable.12" }
%"class.std::_Hashtable.12" = type { ptr, i64, %"struct.std::__detail::_Hash_node_base", i64, %"struct.std::__detail::_Prime_rehash_policy", ptr }
%"class.std::shared_ptr" = type { %"class.std::__shared_ptr" }
%"class.std::__shared_ptr" = type { ptr, %"class.std::__shared_count" }
%"class.std::__shared_count" = type { ptr }

@_ZZN2cv5utils7logging8internal15getGlobalLogTagEvE15globalLogTagPtr = internal global ptr null, align 8
@_ZGVZN2cv5utils7logging8internal15getGlobalLogTagEvE15globalLogTagPtr = internal global i64 0, align 8
@.str = private unnamed_addr constant [7 x i8] c"global\00", align 1

; Function Attrs: mustprogress uwtable
define noundef ptr @_ZN2cv5utils7logging8internal15getGlobalLogTagEv() #4 personality ptr @__gxx_personality_v0 {
  %1 = alloca ptr, align 8
  %2 = alloca i32, align 4
  %3 = alloca %"class.std::__cxx11::basic_string", align 8
  %4 = alloca %"class.std::allocator.31", align 1
  %5 = load atomic i8, ptr @_ZGVZN2cv5utils7logging8internal15getGlobalLogTagEvE15globalLogTagPtr acquire, align 8
  %6 = icmp eq i8 %5, 0
  br i1 %6, label %7, label %17, !prof !4

7:                                                ; preds = %0
  %8 = call i32 @__cxa_guard_acquire(ptr @_ZGVZN2cv5utils7logging8internal15getGlobalLogTagEvE15globalLogTagPtr) #3
  %9 = icmp ne i32 %8, 0
  br i1 %9, label %10, label %17

10:                                               ; preds = %7
  %11 = invoke noundef nonnull align 8 dereferenceable(336) ptr @_ZN2cv5utils7logging8internalL26getGlobalLoggingInitStructEv()
          to label %12 unwind label %19

12:                                               ; preds = %10
  %13 = getelementptr inbounds %"struct.cv::utils::logging::internal::GlobalLoggingInitStruct", ptr %11, i32 0, i32 0
  call void @_ZNSaIcEC1Ev(ptr noundef nonnull align 1 dereferenceable(1) %4) #3
  invoke void @_ZNSt7__cxx1112basic_stringIcSt11char_traitsIcESaIcEEC1EPKcRKS3_(ptr noundef nonnull align 8 dereferenceable(32) %3, ptr noundef @.str, ptr noundef nonnull align 1 dereferenceable(1) %4)
          to label %14 unwind label %23

14:                                               ; preds = %12
  %15 = invoke noundef ptr @_ZN2cv5utils7logging13LogTagManager3getERKNSt7__cxx1112basic_stringIcSt11char_traitsIcESaIcEEE(ptr noundef nonnull align 8 dereferenceable(336) %13, ptr noundef nonnull align 8 dereferenceable(32) %3)
          to label %16 unwind label %27

16:                                               ; preds = %14
  call void @_ZNSt7__cxx1112basic_stringIcSt11char_traitsIcESaIcEED1Ev(ptr noundef nonnull align 8 dereferenceable(32) %3) #3
  call void @_ZNSaIcED1Ev(ptr noundef nonnull align 1 dereferenceable(1) %4) #3
  store ptr %15, ptr @_ZZN2cv5utils7logging8internal15getGlobalLogTagEvE15globalLogTagPtr, align 8
  call void @__cxa_guard_release(ptr @_ZGVZN2cv5utils7logging8internal15getGlobalLogTagEvE15globalLogTagPtr) #3
  br label %17

17:                                               ; preds = %16, %7, %0
  %18 = load ptr, ptr @_ZZN2cv5utils7logging8internal15getGlobalLogTagEvE15globalLogTagPtr, align 8
  ret ptr %18

19:                                               ; preds = %10
  %20 = landingpad { ptr, i32 }
          cleanup
  %21 = extractvalue { ptr, i32 } %20, 0
  store ptr %21, ptr %1, align 8
  %22 = extractvalue { ptr, i32 } %20, 1
  store i32 %22, ptr %2, align 4
  br label %32

23:                                               ; preds = %12
  %24 = landingpad { ptr, i32 }
          cleanup
  %25 = extractvalue { ptr, i32 } %24, 0
  store ptr %25, ptr %1, align 8
  %26 = extractvalue { ptr, i32 } %24, 1
  store i32 %26, ptr %2, align 4
  br label %31

27:                                               ; preds = %14
  %28 = landingpad { ptr, i32 }
          cleanup
  %29 = extractvalue { ptr, i32 } %28, 0
  store ptr %29, ptr %1, align 8
  %30 = extractvalue { ptr, i32 } %28, 1
  store i32 %30, ptr %2, align 4
  call void @_ZNSt7__cxx1112basic_stringIcSt11char_traitsIcESaIcEED1Ev(ptr noundef nonnull align 8 dereferenceable(32) %3) #3
  br label %31

31:                                               ; preds = %27, %23
  call void @_ZNSaIcED1Ev(ptr noundef nonnull align 1 dereferenceable(1) %4) #3
  br label %32

32:                                               ; preds = %31, %19
  call void @__cxa_guard_abort(ptr @_ZGVZN2cv5utils7logging8internal15getGlobalLogTagEvE15globalLogTagPtr) #3
  br label %33

33:                                               ; preds = %32
  %34 = load ptr, ptr %1, align 8
  %35 = load i32, ptr %2, align 4
  %36 = insertvalue { ptr, i32 } poison, ptr %34, 0
  %37 = insertvalue { ptr, i32 } %36, i32 %35, 1
  resume { ptr, i32 } %37
}