; Function Attrs: mustprogress uwtable
define noundef ptr @_ZN2cv5utils7logging8internal15getGlobalLogTagEv() local_unnamed_addr #3 personality ptr @__gxx_personality_v0 {
  %1 = alloca %"class.std::__cxx11::basic_string", align 8
  %2 = alloca %"class.std::allocator.31", align 1
  %3 = load atomic i8, ptr @_ZGVZN2cv5utils7logging8internal15getGlobalLogTagEvE15globalLogTagPtr acquire, align 8
  %4 = icmp eq i8 %3, 0
  br i1 %4, label %5, label %13, !prof !4

5:                                                ; preds = %0
  %6 = tail call i32 @__cxa_guard_acquire(ptr nonnull @_ZGVZN2cv5utils7logging8internal15getGlobalLogTagEvE15globalLogTagPtr) #8
  %.not = icmp eq i32 %6, 0
  br i1 %.not, label %13, label %7

7:                                                ; preds = %5
  %8 = invoke fastcc noundef nonnull align 8 dereferenceable(336) ptr @_ZN2cv5utils7logging8internalL26getGlobalLoggingInitStructEv()
          to label %9 unwind label %15

9:                                                ; preds = %7
  call void @_ZNSaIcEC1Ev(ptr noundef nonnull align 1 dereferenceable(1) %2) #8
  invoke void @_ZNSt7__cxx1112basic_stringIcSt11char_traitsIcESaIcEEC1EPKcRKS3_(ptr noundef nonnull align 8 dereferenceable(32) %1, ptr noundef nonnull @.str, ptr noundef nonnull align 1 dereferenceable(1) %2)
          to label %10 unwind label %17

10:                                               ; preds = %9
  %11 = invoke noundef ptr @_ZN2cv5utils7logging13LogTagManager3getERKNSt7__cxx1112basic_stringIcSt11char_traitsIcESaIcEEE(ptr noundef nonnull align 8 dereferenceable(336) %8, ptr noundef nonnull align 8 dereferenceable(32) %1)
          to label %12 unwind label %19

12:                                               ; preds = %10
  call void @_ZNSt7__cxx1112basic_stringIcSt11char_traitsIcESaIcEED1Ev(ptr noundef nonnull align 8 dereferenceable(32) %1) #8
  call void @_ZNSaIcED1Ev(ptr noundef nonnull align 1 dereferenceable(1) %2) #8
  store ptr %11, ptr @_ZZN2cv5utils7logging8internal15getGlobalLogTagEvE15globalLogTagPtr, align 8
  call void @__cxa_guard_release(ptr nonnull @_ZGVZN2cv5utils7logging8internal15getGlobalLogTagEvE15globalLogTagPtr) #8
  br label %13

13:                                               ; preds = %12, %5, %0
  %14 = load ptr, ptr @_ZZN2cv5utils7logging8internal15getGlobalLogTagEvE15globalLogTagPtr, align 8
  ret ptr %14

15:                                               ; preds = %7
  %16 = landingpad { ptr, i32 }
          cleanup
  br label %22

17:                                               ; preds = %9
  %18 = landingpad { ptr, i32 }
          cleanup
  br label %21

19:                                               ; preds = %10
  %20 = landingpad { ptr, i32 }
          cleanup
  call void @_ZNSt7__cxx1112basic_stringIcSt11char_traitsIcESaIcEED1Ev(ptr noundef nonnull align 8 dereferenceable(32) %1) #8
  br label %21

21:                                               ; preds = %19, %17
  %.pn = phi { ptr, i32 } [ %20, %19 ], [ %18, %17 ]
  call void @_ZNSaIcED1Ev(ptr noundef nonnull align 1 dereferenceable(1) %2) #8
  br label %22

22:                                               ; preds = %21, %15
  %.pn.pn = phi { ptr, i32 } [ %.pn, %21 ], [ %16, %15 ]
  call void @__cxa_guard_abort(ptr nonnull @_ZGVZN2cv5utils7logging8internal15getGlobalLogTagEvE15globalLogTagPtr) #8
  resume { ptr, i32 } %.pn.pn
}